Certificate:
    Data:
        Version: 3 (0x2)
        Serial Number: 1 (0x1)
        Signature Algorithm: sha256WithRSAEncryption
        Issuer: CN=devcert
        Validity
            Not Before: May  5 22:45:40 2020 GMT
            Not After : Aug  8 22:45:40 2022 GMT
        Subject: CN=localhost
        Subject Public Key Info:
            Public Key Algorithm: rsaEncryption
                RSA Public-Key: (2048 bit)
                Modulus:
                    00:a2:59:bb:9a:57:9d:07:81:47:f8:27:dc:d9:80:
                    df:4e:d5:b2:94:45:be:00:99:66:05:bf:e1:ba:29:
                    ca:25:43:21:6f:6a:93:e9:84:6b:30:d0:82:cf:b4:
                    90:0c:66:9d:43:e9:0a:21:ee:d1:fa:25:8c:cd:7a:
                    5b:0a:50:1f:4e:94:fb:20:04:bf:ce:b6:4f:56:34:
                    55:60:e6:3c:53:5b:16:49:34:9e:fe:61:e0:6a:aa:
                    e7:d3:ce:3d:36:ac:bc:ca:4c:f2:d4:4d:4f:0f:24:
                    7d:f4:66:64:95:4c:78:3e:39:90:5f:43:eb:16:57:
                    e7:15:fe:a7:2c:44:1a:4e:64:34:f0:85:e1:d9:79:
                    b9:e7:3f:88:3e:62:77:d9:67:4c:29:df:9c:fc:af:
                    43:3d:bf:9c:33:ec:5e:dc:30:13:5c:3b:69:d4:ca:
                    e3:4a:26:96:c7:55:7a:3a:d9:7c:ae:4b:a4:7e:14:
                    fc:7e:cb:98:67:0d:c9:50:51:6a:13:7f:56:c0:43:
                    8c:65:f5:fe:16:99:8d:23:1d:1f:6f:3f:e3:88:20:
                    26:c9:f7:30:1c:23:e4:ab:f0:bb:ed:3d:b7:69:45:
                    d4:5a:9c:35:60:84:16:9f:9a:3b:f1:5e:8c:67:a1:
                    73:a8:21:77:1c:91:70:c0:23:60:53:32:fe:5c:35:
                    03:41
                Exponent: 65537 (0x10001)
        X509v3 extensions:
            X509v3 Basic Constraints: critical
                CA:FALSE
            X509v3 Subject Key Identifier: 
                51:21:46:8E:6C:BA:18:BD:28:F0:7D:DD:11:5A:81:80:A8:79:AA:70
            X509v3 Authority Key Identifier: 
                keyid:65:68:8E:14:D1:35:A8:B5:69:25:7E:D1:52:EB:CF:9A:B8:3E:E0:46
                DirName:/CN=devcert
                serial:5F:F2:28:DB:CC:D5:95:E2:AA:D8:43:08:20:34:5B:B2:14:77:FD:B1

            X509v3 Key Usage: critical
                Digital Signature, Key Encipherment
            X509v3 Extended Key Usage: 
                TLS Web Server Authentication
            X509v3 Subject Alternative Name: 
                DNS:localhost, DNS:*.localhost
    Signature Algorithm: sha256WithRSAEncryption
         02:16:97:26:2c:2a:a6:0a:d6:ac:ef:5c:f2:ce:79:45:3b:6a:
         95:5c:dc:cf:a8:92:21:e7:03:10:11:c6:34:b6:2f:05:47:53:
         7e:12:24:24:9e:44:59:85:e7:fd:41:62:03:99:71:5d:81:24:
         ad:50:da:5d:20:17:01:41:31:98:8b:34:db:d3:ad:93:7a:32:
         23:82:d5:69:ca:a5:8f:a0:99:0e:8e:5f:d1:1d:8f:d0:1d:49:
         93:36:03:82:e8:63:51:c2:9e:25:5a:47:e7:ae:6b:08:4a:31:
         c1:37:28:ed:19:d2:95:26:ec:5f:e3:44:23:bd:07:6b:af:6d:
         ad:bb:71:73:94:b9:43:fc:30:10:13:a8:b8:d2:e7:32:1d:7c:
         a8:ad:d5:61:52:c8:40:80:10:48:90:e4:1a:40:10:1e:d7:ce:
         cb:98:20:b2:f7:92:e6:df:00:06:a5:90:49:f9:c5:49:19:73:
         c2:43:ec:16:b2:5b:55:86:58:da:01:cb:d4:61:cd:22:95:6a:
         f4:ae:38:2b:02:99:5e:6b:ae:dd:33:19:6a:52:da:24:05:1c:
         72:5e:af:cb:6a:de:31:06:c5:5d:b7:85:b6:39:47:39:93:e8:
         45:7a:33:16:51:8e:09:a0:e2:14:66:31:18:35:f8:f7:8a:10:
         39:44:58:29
-----BEGIN CERTIFICATE-----
MIIDaTCCAlGgAwIBAgIBATANBgkqhkiG9w0BAQsFADASMRAwDgYDVQQDDAdkZXZj
ZXJ0MB4XDTIwMDUwNTIyNDU0MFoXDTIyMDgwODIyNDU0MFowFDESMBAGA1UEAwwJ
bG9jYWxob3N0MIIBIjANBgkqhkiG9w0BAQEFAAOCAQ8AMIIBCgKCAQEAolm7mled
B4FH+Cfc2YDfTtWylEW+AJlmBb/huinKJUMhb2qT6YRrMNCCz7SQDGadQ+kKIe7R
+iWMzXpbClAfTpT7IAS/zrZPVjRVYOY8U1sWSTSe/mHgaqrn0849Nqy8ykzy1E1P
DyR99GZklUx4PjmQX0PrFlfnFf6nLEQaTmQ08IXh2Xm55z+IPmJ32WdMKd+c/K9D
Pb+cM+xe3DATXDtp1MrjSiaWx1V6Otl8rkukfhT8fsuYZw3JUFFqE39WwEOMZfX+
FpmNIx0fbz/jiCAmyfcwHCPkq/C77T23aUXUWpw1YIQWn5o78V6MZ6FzqCF3HJFw
wCNgUzL+XDUDQQIDAQABo4HHMIHEMAwGA1UdEwEB/wQCMAAwHQYDVR0OBBYEFFEh
Ro5suhi9KPB93RFagYCoeapwME0GA1UdIwRGMESAFGVojhTRNai1aSV+0VLrz5q4
PuBGoRakFDASMRAwDgYDVQQDDAdkZXZjZXJ0ghRf8ijbzNWV4qrYQwggNFuyFHf9
sTAOBgNVHQ8BAf8EBAMCBaAwEwYDVR0lBAwwCgYIKwYBBQUHAwEwIQYDVR0RBBow
GIIJbG9jYWxob3N0ggsqLmxvY2FsaG9zdDANBgkqhkiG9w0BAQsFAAOCAQEAAhaX
JiwqpgrWrO9c8s55RTtqlVzcz6iSIecDEBHGNLYvBUdTfhIkJJ5EWYXn/UFiA5lx
XYEkrVDaXSAXAUExmIs029Otk3oyI4LVacqlj6CZDo5f0R2P0B1JkzYDguhjUcKe
JVpH565rCEoxwTco7RnSlSbsX+NEI70Ha69trbtxc5S5Q/wwEBOouNLnMh18qK3V
YVLIQIAQSJDkGkAQHtfOy5ggsveS5t8ABqWQSfnFSRlzwkPsFrJbVYZY2gHL1GHN
IpVq9K44KwKZXmuu3TMZalLaJAUccl6vy2reMQbFXbeFtjlHOZPoRXozFlGOCaDi
FGYxGDX494oQOURYKQ==
-----END CERTIFICATE-----
